   1              		.cpu cortex-m3
   2              		.eabi_attribute 20, 1
   3              		.eabi_attribute 21, 1
   4              		.eabi_attribute 23, 3
   5              		.eabi_attribute 24, 1
   6              		.eabi_attribute 25, 1
   7              		.eabi_attribute 26, 1
   8              		.eabi_attribute 30, 1
   9              		.eabi_attribute 34, 1
  10              		.eabi_attribute 18, 4
  11              		.file	"NVIC_program.c"
  12              		.text
  13              	.Ltext0:
  14              		.cfi_sections	.debug_frame
  15              		.section	.text.MNVIC_voidInit,"ax",%progbits
  16              		.align	1
  17              		.global	MNVIC_voidInit
  18              		.syntax unified
  19              		.thumb
  20              		.thumb_func
  21              		.fpu softvfp
  23              	MNVIC_voidInit:
  24              	.LFB0:
  25              		.file 1 "../src/NVIC_program.c"
   1:../src/NVIC_program.c **** /*****************************************************************************************/
   2:../src/NVIC_program.c **** /* Author    :   Osama Mahmoud                                                           */
   3:../src/NVIC_program.c **** /* Date      :   20/8/2020                                                               */
   4:../src/NVIC_program.c **** /* Version   :   V01                                                                     */
   5:../src/NVIC_program.c **** /*****************************************************************************************/
   6:../src/NVIC_program.c **** 
   7:../src/NVIC_program.c **** #include "STD_TYPES.h"
   8:../src/NVIC_program.c **** #include "BIT_MATH.h"
   9:../src/NVIC_program.c **** 
  10:../src/NVIC_program.c **** #include "NVIC_interface.h"
  11:../src/NVIC_program.c **** #include "NVIC_private.h"
  12:../src/NVIC_program.c **** #include "NVIC_config.h"
  13:../src/NVIC_program.c **** 
  14:../src/NVIC_program.c **** 
  15:../src/NVIC_program.c **** void MNVIC_voidInit(void)
  16:../src/NVIC_program.c **** {
  26              		.loc 1 16 0
  27              		.cfi_startproc
  28              		@ args = 0, pretend = 0, frame = 0
  29              		@ frame_needed = 0, uses_anonymous_args = 0
  30              		@ link register save eliminated.
  17:../src/NVIC_program.c ****     #define SCB_AIRCR  *((u32*)0xE000ED0C)
  18:../src/NVIC_program.c **** 	SCB_AIRCR = MNVIC_GROUP_SUB_DISTRIBUTION;
  31              		.loc 1 18 0
  32 0000 014B     		ldr	r3, .L2
  33 0002 024A     		ldr	r2, .L2+4
  34 0004 1A60     		str	r2, [r3]
  19:../src/NVIC_program.c **** }
  35              		.loc 1 19 0
  36 0006 7047     		bx	lr
  37              	.L3:
  38              		.align	2
  39              	.L2:
  40 0008 0CED00E0 		.word	-536810228
  41 000c 0005FA05 		.word	100271360
  42              		.cfi_endproc
  43              	.LFE0:
  45              		.section	.text.MNVIC_voidSetPriority,"ax",%progbits
  46              		.align	1
  47              		.global	MNVIC_voidSetPriority
  48              		.syntax unified
  49              		.thumb
  50              		.thumb_func
  51              		.fpu softvfp
  53              	MNVIC_voidSetPriority:
  54              	.LFB1:
  20:../src/NVIC_program.c **** 
  21:../src/NVIC_program.c **** 
  22:../src/NVIC_program.c **** void MNVIC_voidSetPriority(u8 Copy_PeripheralIdx, u8 Copy_u8Priority)
  23:../src/NVIC_program.c **** {
  55              		.loc 1 23 0
  56              		.cfi_startproc
  57              		@ args = 0, pretend = 0, frame = 0
  58              		@ frame_needed = 0, uses_anonymous_args = 0
  59              		@ link register save eliminated.
  60              	.LVL0:
  24:../src/NVIC_program.c **** 	if (Copy_PeripheralIdx < 60)
  61              		.loc 1 24 0
  62 0000 3B28     		cmp	r0, #59
  63 0002 04D8     		bhi	.L4
  25:../src/NVIC_program.c **** 	{
  26:../src/NVIC_program.c **** 		NVIC_IPR[Copy_PeripheralIdx] = Copy_u8Priority;
  64              		.loc 1 26 0
  65 0004 00F16040 		add	r0, r0, #-536870912
  66              	.LVL1:
  67 0008 00F56440 		add	r0, r0, #58368
  68 000c 0170     		strb	r1, [r0]
  69              	.L4:
  27:../src/NVIC_program.c **** 	}
  28:../src/NVIC_program.c **** 
  29:../src/NVIC_program.c **** 	else
  30:../src/NVIC_program.c **** 	{
  31:../src/NVIC_program.c **** 		/* Report Error */
  32:../src/NVIC_program.c **** 	}
  33:../src/NVIC_program.c **** }
  70              		.loc 1 33 0
  71 000e 7047     		bx	lr
  72              		.cfi_endproc
  73              	.LFE1:
  75              		.section	.text.NVIC_voidEnableInterrupt,"ax",%progbits
  76              		.align	1
  77              		.global	NVIC_voidEnableInterrupt
  78              		.syntax unified
  79              		.thumb
  80              		.thumb_func
  81              		.fpu softvfp
  83              	NVIC_voidEnableInterrupt:
  84              	.LFB2:
  34:../src/NVIC_program.c **** void NVIC_voidEnableInterrupt(u8 Copy_u8IntNumber)
  35:../src/NVIC_program.c **** {
  85              		.loc 1 35 0
  86              		.cfi_startproc
  87              		@ args = 0, pretend = 0, frame = 0
  88              		@ frame_needed = 0, uses_anonymous_args = 0
  89              		@ link register save eliminated.
  90              	.LVL2:
  36:../src/NVIC_program.c **** 	if(Copy_u8IntNumber<=31)
  91              		.loc 1 36 0
  92 0000 1F28     		cmp	r0, #31
  93 0002 09D9     		bls	.L9
  37:../src/NVIC_program.c **** 	{
  38:../src/NVIC_program.c **** 		NVIC_ISER0 = 1<<Copy_u8IntNumber;
  39:../src/NVIC_program.c **** 	}
  40:../src/NVIC_program.c **** 	else if(Copy_u8IntNumber<=59)
  94              		.loc 1 40 0
  95 0004 3B28     		cmp	r0, #59
  96 0006 06D8     		bhi	.L6
  41:../src/NVIC_program.c **** 	{   
  42:../src/NVIC_program.c ****         Copy_u8IntNumber-=32;
  97              		.loc 1 42 0
  98 0008 2038     		subs	r0, r0, #32
  99              	.LVL3:
 100 000a C0B2     		uxtb	r0, r0
 101              	.LVL4:
  43:../src/NVIC_program.c **** 		NVIC_ISER1 = 1<<Copy_u8IntNumber;
 102              		.loc 1 43 0
 103 000c 0123     		movs	r3, #1
 104 000e 03FA00F0 		lsl	r0, r3, r0
 105              	.LVL5:
 106 0012 044B     		ldr	r3, .L10
 107 0014 1860     		str	r0, [r3]
 108              	.L6:
  44:../src/NVIC_program.c **** 	}
  45:../src/NVIC_program.c **** 	else
  46:../src/NVIC_program.c **** 	{
  47:../src/NVIC_program.c **** 		/* Return Error */
  48:../src/NVIC_program.c **** 	}
  49:../src/NVIC_program.c **** }
 109              		.loc 1 49 0
 110 0016 7047     		bx	lr
 111              	.LVL6:
 112              	.L9:
  38:../src/NVIC_program.c **** 	}
 113              		.loc 1 38 0
 114 0018 0123     		movs	r3, #1
 115 001a 03FA00F0 		lsl	r0, r3, r0
 116              	.LVL7:
 117 001e 024B     		ldr	r3, .L10+4
 118 0020 1860     		str	r0, [r3]
 119 0022 7047     		bx	lr
 120              	.L11:
 121              		.align	2
 122              	.L10:
 123 0024 04E100E0 		.word	-536813308
 124 0028 00E100E0 		.word	-536813312
 125              		.cfi_endproc
 126              	.LFE2:
 128              		.section	.text.NVIC_voidDisableInterrupt,"ax",%progbits
 129              		.align	1
 130              		.global	NVIC_voidDisableInterrupt
 131              		.syntax unified
 132              		.thumb
 133              		.thumb_func
 134              		.fpu softvfp
 136              	NVIC_voidDisableInterrupt:
 137              	.LFB3:
  50:../src/NVIC_program.c **** void NVIC_voidDisableInterrupt(u8 Copy_u8IntNumber)
  51:../src/NVIC_program.c **** {
 138              		.loc 1 51 0
 139              		.cfi_startproc
 140              		@ args = 0, pretend = 0, frame = 0
 141              		@ frame_needed = 0, uses_anonymous_args = 0
 142              		@ link register save eliminated.
 143              	.LVL8:
  52:../src/NVIC_program.c **** 	if(Copy_u8IntNumber<=31)
 144              		.loc 1 52 0
 145 0000 1F28     		cmp	r0, #31
 146 0002 09D9     		bls	.L15
  53:../src/NVIC_program.c **** 	{
  54:../src/NVIC_program.c **** 		NVIC_ICER0 = (1<<Copy_u8IntNumber);
  55:../src/NVIC_program.c **** 	}
  56:../src/NVIC_program.c **** 	else if(Copy_u8IntNumber<=59)
 147              		.loc 1 56 0
 148 0004 3B28     		cmp	r0, #59
 149 0006 06D8     		bhi	.L12
  57:../src/NVIC_program.c **** 	{   
  58:../src/NVIC_program.c ****         Copy_u8IntNumber-=32;
 150              		.loc 1 58 0
 151 0008 2038     		subs	r0, r0, #32
 152              	.LVL9:
 153 000a C0B2     		uxtb	r0, r0
 154              	.LVL10:
  59:../src/NVIC_program.c **** 		NVIC_ICER1 = (1<<Copy_u8IntNumber);
 155              		.loc 1 59 0
 156 000c 0123     		movs	r3, #1
 157 000e 03FA00F0 		lsl	r0, r3, r0
 158              	.LVL11:
 159 0012 044B     		ldr	r3, .L16
 160 0014 1860     		str	r0, [r3]
 161              	.L12:
  60:../src/NVIC_program.c **** 	}
  61:../src/NVIC_program.c **** 	else
  62:../src/NVIC_program.c **** 	{
  63:../src/NVIC_program.c **** 		/* Return Error */
  64:../src/NVIC_program.c **** 	}
  65:../src/NVIC_program.c **** }
 162              		.loc 1 65 0
 163 0016 7047     		bx	lr
 164              	.LVL12:
 165              	.L15:
  54:../src/NVIC_program.c **** 	}
 166              		.loc 1 54 0
 167 0018 0123     		movs	r3, #1
 168 001a 03FA00F0 		lsl	r0, r3, r0
 169              	.LVL13:
 170 001e 024B     		ldr	r3, .L16+4
 171 0020 1860     		str	r0, [r3]
 172 0022 7047     		bx	lr
 173              	.L17:
 174              		.align	2
 175              	.L16:
 176 0024 84E100E0 		.word	-536813180
 177 0028 80E100E0 		.word	-536813184
 178              		.cfi_endproc
 179              	.LFE3:
 181              		.section	.text.NVIC_voidSetPendingFlag,"ax",%progbits
 182              		.align	1
 183              		.global	NVIC_voidSetPendingFlag
 184              		.syntax unified
 185              		.thumb
 186              		.thumb_func
 187              		.fpu softvfp
 189              	NVIC_voidSetPendingFlag:
 190              	.LFB4:
  66:../src/NVIC_program.c **** void NVIC_voidSetPendingFlag(u8 Copy_u8IntNumber)
  67:../src/NVIC_program.c **** {
 191              		.loc 1 67 0
 192              		.cfi_startproc
 193              		@ args = 0, pretend = 0, frame = 0
 194              		@ frame_needed = 0, uses_anonymous_args = 0
 195              		@ link register save eliminated.
 196              	.LVL14:
  68:../src/NVIC_program.c **** 	if(Copy_u8IntNumber<=31)
 197              		.loc 1 68 0
 198 0000 1F28     		cmp	r0, #31
 199 0002 09D9     		bls	.L21
  69:../src/NVIC_program.c **** 	{
  70:../src/NVIC_program.c **** 		NVIC_ISPR0 = (1<<Copy_u8IntNumber);
  71:../src/NVIC_program.c **** 	}
  72:../src/NVIC_program.c **** 	else if(Copy_u8IntNumber<=59)
 200              		.loc 1 72 0
 201 0004 3B28     		cmp	r0, #59
 202 0006 06D8     		bhi	.L18
  73:../src/NVIC_program.c **** 	{   
  74:../src/NVIC_program.c ****         Copy_u8IntNumber-=32;
 203              		.loc 1 74 0
 204 0008 2038     		subs	r0, r0, #32
 205              	.LVL15:
 206 000a C0B2     		uxtb	r0, r0
 207              	.LVL16:
  75:../src/NVIC_program.c **** 		NVIC_ISPR1 = 1<<Copy_u8IntNumber;
 208              		.loc 1 75 0
 209 000c 0123     		movs	r3, #1
 210 000e 03FA00F0 		lsl	r0, r3, r0
 211              	.LVL17:
 212 0012 044B     		ldr	r3, .L22
 213 0014 1860     		str	r0, [r3]
 214              	.L18:
  76:../src/NVIC_program.c **** 	}
  77:../src/NVIC_program.c **** 	else
  78:../src/NVIC_program.c **** 	{
  79:../src/NVIC_program.c **** 		/* Return Error */
  80:../src/NVIC_program.c **** 	}
  81:../src/NVIC_program.c **** }
 215              		.loc 1 81 0
 216 0016 7047     		bx	lr
 217              	.LVL18:
 218              	.L21:
  70:../src/NVIC_program.c **** 	}
 219              		.loc 1 70 0
 220 0018 0123     		movs	r3, #1
 221 001a 03FA00F0 		lsl	r0, r3, r0
 222              	.LVL19:
 223 001e 024B     		ldr	r3, .L22+4
 224 0020 1860     		str	r0, [r3]
 225 0022 7047     		bx	lr
 226              	.L23:
 227              		.align	2
 228              	.L22:
 229 0024 04E200E0 		.word	-536813052
 230 0028 00E200E0 		.word	-536813056
 231              		.cfi_endproc
 232              	.LFE4:
 234              		.section	.text.NVIC_voidClearPendingFlag,"ax",%progbits
 235              		.align	1
 236              		.global	NVIC_voidClearPendingFlag
 237              		.syntax unified
 238              		.thumb
 239              		.thumb_func
 240              		.fpu softvfp
 242              	NVIC_voidClearPendingFlag:
 243              	.LFB5:
  82:../src/NVIC_program.c **** void NVIC_voidClearPendingFlag(u8 Copy_u8IntNumber)
  83:../src/NVIC_program.c **** {
 244              		.loc 1 83 0
 245              		.cfi_startproc
 246              		@ args = 0, pretend = 0, frame = 0
 247              		@ frame_needed = 0, uses_anonymous_args = 0
 248              		@ link register save eliminated.
 249              	.LVL20:
  84:../src/NVIC_program.c **** 	if(Copy_u8IntNumber<=31)
 250              		.loc 1 84 0
 251 0000 1F28     		cmp	r0, #31
 252 0002 09D9     		bls	.L27
  85:../src/NVIC_program.c **** 	{
  86:../src/NVIC_program.c **** 		NVIC_ICPR0 = (1<<Copy_u8IntNumber);
  87:../src/NVIC_program.c **** 	}
  88:../src/NVIC_program.c **** 	else if(Copy_u8IntNumber<=59)
 253              		.loc 1 88 0
 254 0004 3B28     		cmp	r0, #59
 255 0006 06D8     		bhi	.L24
  89:../src/NVIC_program.c **** 	{   
  90:../src/NVIC_program.c ****         Copy_u8IntNumber-=32;
 256              		.loc 1 90 0
 257 0008 2038     		subs	r0, r0, #32
 258              	.LVL21:
 259 000a C0B2     		uxtb	r0, r0
 260              	.LVL22:
  91:../src/NVIC_program.c **** 		NVIC_ICPR1 = 1<<Copy_u8IntNumber;
 261              		.loc 1 91 0
 262 000c 0123     		movs	r3, #1
 263 000e 03FA00F0 		lsl	r0, r3, r0
 264              	.LVL23:
 265 0012 044B     		ldr	r3, .L28
 266 0014 1860     		str	r0, [r3]
 267              	.L24:
  92:../src/NVIC_program.c **** 	}
  93:../src/NVIC_program.c **** 	else
  94:../src/NVIC_program.c **** 	{
  95:../src/NVIC_program.c **** 		/* Return Error */
  96:../src/NVIC_program.c **** 	}
  97:../src/NVIC_program.c **** }
 268              		.loc 1 97 0
 269 0016 7047     		bx	lr
 270              	.LVL24:
 271              	.L27:
  86:../src/NVIC_program.c **** 	}
 272              		.loc 1 86 0
 273 0018 0123     		movs	r3, #1
 274 001a 03FA00F0 		lsl	r0, r3, r0
 275              	.LVL25:
 276 001e 024B     		ldr	r3, .L28+4
 277 0020 1860     		str	r0, [r3]
 278 0022 7047     		bx	lr
 279              	.L29:
 280              		.align	2
 281              	.L28:
 282 0024 84E200E0 		.word	-536812924
 283 0028 80E200E0 		.word	-536812928
 284              		.cfi_endproc
 285              	.LFE5:
 287              		.section	.text.NVIC_u8GetActiveFlag,"ax",%progbits
 288              		.align	1
 289              		.global	NVIC_u8GetActiveFlag
 290              		.syntax unified
 291              		.thumb
 292              		.thumb_func
 293              		.fpu softvfp
 295              	NVIC_u8GetActiveFlag:
 296              	.LFB6:
  98:../src/NVIC_program.c **** u8 NVIC_u8GetActiveFlag(u8 Copy_u8IntNumber)
  99:../src/NVIC_program.c **** {
 297              		.loc 1 99 0
 298              		.cfi_startproc
 299              		@ args = 0, pretend = 0, frame = 0
 300              		@ frame_needed = 0, uses_anonymous_args = 0
 301              		@ link register save eliminated.
 302              	.LVL26:
 100:../src/NVIC_program.c **** 	u8 Local_u8Result = 0;
 101:../src/NVIC_program.c **** 	if(Copy_u8IntNumber<=31)
 303              		.loc 1 101 0
 304 0000 1F28     		cmp	r0, #31
 305 0002 08D9     		bls	.L34
 102:../src/NVIC_program.c **** 	{
 103:../src/NVIC_program.c **** 		Local_u8Result = GET_BIT(NVIC_IABR0 , Copy_u8IntNumber);
 104:../src/NVIC_program.c **** 	}
 105:../src/NVIC_program.c **** 	else if(Copy_u8IntNumber<=59)
 306              		.loc 1 105 0
 307 0004 3B28     		cmp	r0, #59
 308 0006 0DD8     		bhi	.L33
 106:../src/NVIC_program.c **** 	{
 107:../src/NVIC_program.c **** 		Local_u8Result = GET_BIT(NVIC_IABR1 , Copy_u8IntNumber);
 309              		.loc 1 107 0
 310 0008 074B     		ldr	r3, .L35
 311 000a 1B68     		ldr	r3, [r3]
 312 000c 23FA00F0 		lsr	r0, r3, r0
 313              	.LVL27:
 314 0010 00F00100 		and	r0, r0, #1
 315              	.LVL28:
 316 0014 7047     		bx	lr
 317              	.LVL29:
 318              	.L34:
 103:../src/NVIC_program.c **** 	}
 319              		.loc 1 103 0
 320 0016 054B     		ldr	r3, .L35+4
 321 0018 1B68     		ldr	r3, [r3]
 322 001a 23FA00F0 		lsr	r0, r3, r0
 323              	.LVL30:
 324 001e 00F00100 		and	r0, r0, #1
 325              	.LVL31:
 326 0022 7047     		bx	lr
 327              	.LVL32:
 328              	.L33:
 100:../src/NVIC_program.c **** 	if(Copy_u8IntNumber<=31)
 329              		.loc 1 100 0
 330 0024 0020     		movs	r0, #0
 331              	.LVL33:
 108:../src/NVIC_program.c **** 	}
 109:../src/NVIC_program.c **** 	else
 110:../src/NVIC_program.c **** 	{
 111:../src/NVIC_program.c **** 		/* Return Error */
 112:../src/NVIC_program.c **** 	}
 113:../src/NVIC_program.c **** 	
 114:../src/NVIC_program.c **** 	return Local_u8Result;
 115:../src/NVIC_program.c **** }
 332              		.loc 1 115 0
 333 0026 7047     		bx	lr
 334              	.L36:
 335              		.align	2
 336              	.L35:
 337 0028 04E300E0 		.word	-536812796
 338 002c 00E300E0 		.word	-536812800
 339              		.cfi_endproc
 340              	.LFE6:
 342              		.section	.text.NVIC_voidSetPriority,"ax",%progbits
 343              		.align	1
 344              		.global	NVIC_voidSetPriority
 345              		.syntax unified
 346              		.thumb
 347              		.thumb_func
 348              		.fpu softvfp
 350              	NVIC_voidSetPriority:
 351              	.LFB7:
 116:../src/NVIC_program.c **** 
 117:../src/NVIC_program.c **** void NVIC_voidSetPriority(s8 Copy_s8IntID,u8 Copy_u8GroupPriority,u8 Copy_u8SubPriority,u32 Copy_u8
 118:../src/NVIC_program.c **** {
 352              		.loc 1 118 0
 353              		.cfi_startproc
 354              		@ args = 0, pretend = 0, frame = 0
 355              		@ frame_needed = 0, uses_anonymous_args = 0
 356              		@ link register save eliminated.
 357              	.LVL34:
 358 0000 10B4     		push	{r4}
 359              		.cfi_def_cfa_offset 4
 360              		.cfi_offset 4, -4
 119:../src/NVIC_program.c **** 	u8 Local_u8Priority = Copy_u8SubPriority|(Copy_u8GroupPriority<<((Copy_u8Group - 0x05FA0300)/256))
 361              		.loc 1 119 0
 362 0002 0A4C     		ldr	r4, .L40
 363 0004 1C44     		add	r4, r4, r3
 364 0006 240A     		lsrs	r4, r4, #8
 365 0008 01FA04F4 		lsl	r4, r1, r4
 366 000c 1443     		orrs	r4, r4, r2
 367              	.LVL35:
 120:../src/NVIC_program.c **** 	/* check if core peripheral or External peripheral */
 121:../src/NVIC_program.c **** 	
 122:../src/NVIC_program.c **** 	if(Copy_s8IntID >= 0)
 368              		.loc 1 122 0
 369 000e 0028     		cmp	r0, #0
 370              	.LVL36:
 371 0010 07DB     		blt	.L38
 372 0012 E4B2     		uxtb	r4, r4
 123:../src/NVIC_program.c **** 	{
 124:../src/NVIC_program.c **** 		NVIC_IPR[Copy_s8IntID] = Local_u8Priority << 4;
 373              		.loc 1 124 0
 374 0014 00F16040 		add	r0, r0, #-536870912
 375 0018 00F56440 		add	r0, r0, #58368
 376 001c 2401     		lsls	r4, r4, #4
 377              	.LVL37:
 378 001e E4B2     		uxtb	r4, r4
 379 0020 0470     		strb	r4, [r0]
 380              	.L38:
 125:../src/NVIC_program.c **** 	}
 126:../src/NVIC_program.c **** 	SCB_AIRCR = Copy_u8Group;
 381              		.loc 1 126 0
 382 0022 034A     		ldr	r2, .L40+4
 383              	.LVL38:
 384 0024 1360     		str	r3, [r2]
 127:../src/NVIC_program.c **** }
 385              		.loc 1 127 0
 386 0026 10BC     		pop	{r4}
 387              		.cfi_restore 4
 388              		.cfi_def_cfa_offset 0
 389 0028 7047     		bx	lr
 390              	.L41:
 391 002a 00BF     		.align	2
 392              	.L40:
 393 002c 00FD05FA 		.word	-100270848
 394 0030 0CED00E0 		.word	-536810228
 395              		.cfi_endproc
 396              	.LFE7:
 398              		.text
 399              	.Letext0:
 400              		.file 2 "../include/STD_TYPES.h"