   1              		.cpu cortex-m3
   2              		.eabi_attribute 20, 1
   3              		.eabi_attribute 21, 1
   4              		.eabi_attribute 23, 3
   5              		.eabi_attribute 24, 1
   6              		.eabi_attribute 25, 1
   7              		.eabi_attribute 26, 1
   8              		.eabi_attribute 30, 1
   9              		.eabi_attribute 34, 1
  10              		.eabi_attribute 18, 4
  11              		.file	"main.c"
  12              		.text
  13              	.Ltext0:
  14              		.cfi_sections	.debug_frame
  15              		.section	.text.main,"ax",%progbits
  16              		.align	1
  17              		.global	main
  18              		.syntax unified
  19              		.thumb
  20              		.thumb_func
  21              		.fpu softvfp
  23              	main:
  24              	.LFB0:
  25              		.file 1 "../src/main.c"
   1:../src/main.c **** /*
   2:../src/main.c ****  * main.c
   3:../src/main.c ****  *
   4:../src/main.c ****  *  Created on: Aug 24, 2020
   5:../src/main.c ****  *      Author: asss5
   6:../src/main.c ****  */
   7:../src/main.c **** #include "STD_TYPES.h"
   8:../src/main.c **** #include "BIT_MATH.h"
   9:../src/main.c **** 
  10:../src/main.c **** #include "RCC_interface.h"
  11:../src/main.c **** #include "DIO_interface.h"
  12:../src/main.c **** #include "NVIC_interface.h"
  13:../src/main.c **** 
  14:../src/main.c **** int main(void)
  15:../src/main.c **** {
  26              		.loc 1 15 0
  27              		.cfi_startproc
  28              		@ Volatile: function does not return.
  29              		@ args = 0, pretend = 0, frame = 0
  30              		@ frame_needed = 0, uses_anonymous_args = 0
  31 0000 08B5     		push	{r3, lr}
  32              		.cfi_def_cfa_offset 8
  33              		.cfi_offset 3, -8
  34              		.cfi_offset 14, -4
  16:../src/main.c **** 	/* Initialize Clock*/
  17:../src/main.c **** 	RCC_voidInitSysClock();
  35              		.loc 1 17 0
  36 0002 FFF7FEFF 		bl	RCC_voidInitSysClock
  37              	.LVL0:
  18:../src/main.c **** 	RCC_voidEnableClock(RCC_APB2,2);
  38              		.loc 1 18 0
  39 0006 0221     		movs	r1, #2
  40 0008 0846     		mov	r0, r1
  41 000a FFF7FEFF 		bl	RCC_voidEnableClock
  42              	.LVL1:
  19:../src/main.c **** 
  20:../src/main.c **** 	/* Pin Mode */
  21:../src/main.c **** 	DIO_voidSetDirection(GPIOA,0,OUTPUT_PP_2MHZ);
  43              		.loc 1 21 0
  44 000e 0222     		movs	r2, #2
  45 0010 0021     		movs	r1, #0
  46 0012 0846     		mov	r0, r1
  47 0014 FFF7FEFF 		bl	DIO_voidSetDirection
  48              	.LVL2:
  22:../src/main.c **** 	DIO_voidSetDirection(GPIOA,1,OUTPUT_PP_2MHZ);
  49              		.loc 1 22 0
  50 0018 0222     		movs	r2, #2
  51 001a 0121     		movs	r1, #1
  52 001c 0020     		movs	r0, #0
  53 001e FFF7FEFF 		bl	DIO_voidSetDirection
  54              	.LVL3:
  23:../src/main.c **** 	DIO_voidSetDirection(GPIOA,4,OUTPUT_PP_2MHZ);
  55              		.loc 1 23 0
  56 0022 0222     		movs	r2, #2
  57 0024 0421     		movs	r1, #4
  58 0026 0020     		movs	r0, #0
  59 0028 FFF7FEFF 		bl	DIO_voidSetDirection
  60              	.LVL4:
  24:../src/main.c **** 
  25:../src/main.c **** 	/* Initialize NVIC */
  26:../src/main.c **** 	MNVIC_voidInit();
  61              		.loc 1 26 0
  62 002c FFF7FEFF 		bl	MNVIC_voidInit
  63              	.LVL5:
  27:../src/main.c **** 
  28:../src/main.c **** 	MNVIC_voidSetPriority(6,0b01000000);  /* EXTI0 Group 1 sub 0 */
  64              		.loc 1 28 0
  65 0030 4021     		movs	r1, #64
  66 0032 0620     		movs	r0, #6
  67 0034 FFF7FEFF 		bl	MNVIC_voidSetPriority
  68              	.LVL6:
  29:../src/main.c **** 	MNVIC_voidSetPriority(7,0b00110000);  /* EXTI1 Group 0 sub 3 */
  69              		.loc 1 29 0
  70 0038 3021     		movs	r1, #48
  71 003a 0720     		movs	r0, #7
  72 003c FFF7FEFF 		bl	MNVIC_voidSetPriority
  73              	.LVL7:
  30:../src/main.c **** 	NVIC_voidEnableInterrupt(6); /* EXTI0 */
  74              		.loc 1 30 0
  75 0040 0620     		movs	r0, #6
  76 0042 FFF7FEFF 		bl	NVIC_voidEnableInterrupt
  77              	.LVL8:
  31:../src/main.c **** 	NVIC_voidEnableInterrupt(7); /* EXTI1 */
  78              		.loc 1 31 0
  79 0046 0720     		movs	r0, #7
  80 0048 FFF7FEFF 		bl	NVIC_voidEnableInterrupt
  81              	.LVL9:
  32:../src/main.c **** 
  33:../src/main.c **** 	NVIC_voidSetPendingFlag(6);
  82              		.loc 1 33 0
  83 004c 0620     		movs	r0, #6
  84 004e FFF7FEFF 		bl	NVIC_voidSetPendingFlag
  85              	.LVL10:
  86              	.L2:
  87 0052 FEE7     		b	.L2
  88              		.cfi_endproc
  89              	.LFE0:
  91              		.section	.text.EXTI0_IRQHandler,"ax",%progbits
  92              		.align	1
  93              		.global	EXTI0_IRQHandler
  94              		.syntax unified
  95              		.thumb
  96              		.thumb_func
  97              		.fpu softvfp
  99              	EXTI0_IRQHandler:
 100              	.LFB1:
  34:../src/main.c **** 	while(1)
  35:../src/main.c **** 	{
  36:../src/main.c **** 
  37:../src/main.c **** 	}
  38:../src/main.c **** }
  39:../src/main.c **** 
  40:../src/main.c **** void EXTI0_IRQHandler(void)
  41:../src/main.c **** {
 101              		.loc 1 41 0
 102              		.cfi_startproc
 103              		@ args = 0, pretend = 0, frame = 0
 104              		@ frame_needed = 0, uses_anonymous_args = 0
 105 0000 08B5     		push	{r3, lr}
 106              		.cfi_def_cfa_offset 8
 107              		.cfi_offset 3, -8
 108              		.cfi_offset 14, -4
  42:../src/main.c **** 	DIO_voidSetValue(GPIOA,0,GPIO_HIGH);
 109              		.loc 1 42 0
 110 0002 0122     		movs	r2, #1
 111 0004 0021     		movs	r1, #0
 112 0006 0846     		mov	r0, r1
 113 0008 FFF7FEFF 		bl	DIO_voidSetValue
 114              	.LVL11:
  43:../src/main.c **** 	NVIC_voidSetPendingFlag(7);
 115              		.loc 1 43 0
 116 000c 0720     		movs	r0, #7
 117 000e FFF7FEFF 		bl	NVIC_voidSetPendingFlag
 118              	.LVL12:
  44:../src/main.c **** 	DIO_voidSetValue(GPIOA,1,GPIO_HIGH);
 119              		.loc 1 44 0
 120 0012 0122     		movs	r2, #1
 121 0014 1146     		mov	r1, r2
 122 0016 0020     		movs	r0, #0
 123 0018 FFF7FEFF 		bl	DIO_voidSetValue
 124              	.LVL13:
  45:../src/main.c **** }
 125              		.loc 1 45 0
 126 001c 08BD     		pop	{r3, pc}
 127              		.cfi_endproc
 128              	.LFE1:
 130              		.section	.text.EXTI1_IRQHandler,"ax",%progbits
 131              		.align	1
 132              		.global	EXTI1_IRQHandler
 133              		.syntax unified
 134              		.thumb
 135              		.thumb_func
 136              		.fpu softvfp
 138              	EXTI1_IRQHandler:
 139              	.LFB2:
  46:../src/main.c **** void EXTI1_IRQHandler(void)
  47:../src/main.c **** {
 140              		.loc 1 47 0
 141              		.cfi_startproc
 142              		@ args = 0, pretend = 0, frame = 0
 143              		@ frame_needed = 0, uses_anonymous_args = 0
 144 0000 08B5     		push	{r3, lr}
 145              		.cfi_def_cfa_offset 8
 146              		.cfi_offset 3, -8
 147              		.cfi_offset 14, -4
  48:../src/main.c **** 	DIO_voidSetValue(GPIOA,4,GPIO_HIGH);
 148              		.loc 1 48 0
 149 0002 0122     		movs	r2, #1
 150 0004 0421     		movs	r1, #4
 151 0006 0020     		movs	r0, #0
 152 0008 FFF7FEFF 		bl	DIO_voidSetValue
 153              	.LVL14:
  49:../src/main.c **** }
 154              		.loc 1 49 0
 155 000c 08BD     		pop	{r3, pc}
 156              		.cfi_endproc
 157              	.LFE2:
 159              		.text
 160              	.Letext0:
 161              		.file 2 "../include/DIO_interface.h"
 162              		.file 3 "../include/NVIC_interface.h"
 163              		.file 4 "../include/RCC_interface.h"